; Function Attrs: uwtable
define internal void @_ZThn16_N9grpc_core12_GLOBAL__N_121InprocServerTransport6OrphanEv(ptr noundef %this) unnamed_addr #17 align 2 personality ptr @__gxx_personality_v0 {
entry:
  %0 = getelementptr inbounds i8, ptr %this, i64 -16
  %refs_.i.i = getelementptr inbounds i8, ptr %this, i64 -8
  %1 = atomicrmw sub ptr %refs_.i.i, i64 1 acq_rel, align 8
  %cmp.i.i.i = icmp eq i64 %1, 1
  br i1 %cmp.i.i.i, label %if.then.i.i, label %_ZN9grpc_core12_GLOBAL__N_121InprocServerTransport6OrphanEv.exit

if.then.i.i:                                      ; preds = %entry
  %state_tracker_.i.i.i.i = getelementptr inbounds i8, ptr %this, i64 80
  tail call void @_ZN9grpc_core24ConnectivityStateTrackerD1Ev(ptr noundef nonnull align 8 dereferenceable(72) %state_tracker_.i.i.i.i) #22
  %state_tracker_mu_.i.i.i.i = getelementptr inbounds i8, ptr %this, i64 72
  tail call void @_ZN4absl12lts_202308025MutexD1Ev(ptr noundef nonnull align 8 dereferenceable(8) %state_tracker_mu_.i.i.i.i) #22
  %disconnect_error_.i.i.i.i = getelementptr inbounds i8, ptr %this, i64 64
  %2 = load i64, ptr %disconnect_error_.i.i.i.i, align 8
  %and.i.i.i.i.i.i.i = and i64 %2, 1
  %cmp.i.i.i.i.i.i.i = icmp eq i64 %and.i.i.i.i.i.i.i, 0
  br i1 %cmp.i.i.i.i.i.i.i, label %_ZNK9grpc_core11UnrefDeleteclIKNS_12_GLOBAL__N_121InprocServerTransportEEEvPT_.exit.i.i, label %if.then.i.i.i.i.i.i

if.then.i.i.i.i.i.i:                              ; preds = %if.then.i.i
  invoke void @_ZN4absl12lts_202308026Status15UnrefNonInlinedEm(i64 noundef %2)
          to label %_ZNK9grpc_core11UnrefDeleteclIKNS_12_GLOBAL__N_121InprocServerTransportEEEvPT_.exit.i.i unwind label %terminate.lpad.i.i.i.i.i

terminate.lpad.i.i.i.i.i:                         ; preds = %if.then.i.i.i.i.i.i
  %3 = landingpad { ptr, i32 }
          catch ptr null
  %4 = extractvalue { ptr, i32 } %3, 0
  tail call void @__clang_call_terminate(ptr %4) #26
  unreachable

_ZNK9grpc_core11UnrefDeleteclIKNS_12_GLOBAL__N_121InprocServerTransportEEEvPT_.exit.i.i: ; preds = %if.then.i.i.i.i.i.i, %if.then.i.i
  %accept_.i.i.i.i = getelementptr inbounds i8, ptr %this, i64 32
  %manager_.i.i.i.i.i.i.i = getelementptr inbounds i8, ptr %this, i64 48
  %5 = load ptr, ptr %manager_.i.i.i.i.i.i.i, align 16
  tail call void %5(i1 noundef zeroext true, ptr noundef nonnull %accept_.i.i.i.i, ptr noundef nonnull %accept_.i.i.i.i) #22
  tail call void @_ZdlPv(ptr noundef nonnull %0) #25
  br label %_ZN9grpc_core12_GLOBAL__N_121InprocServerTransport6OrphanEv.exit

_ZN9grpc_core12_GLOBAL__N_121InprocServerTransport6OrphanEv.exit: ; preds = %entry, %_ZNK9grpc_core11UnrefDeleteclIKNS_12_GLOBAL__N_121InprocServerTransportEEEvPT_.exit.i.i
  ret void
}